; Function Attrs: mustprogress nounwind uwtable
define internal fastcc void @_ZN12_GLOBAL__N_121DOCTEST_ANON_CLASS_57D2Ev(ptr noundef nonnull align 8 dereferenceable(3600) %0) unnamed_addr #1 align 2 {
  %2 = getelementptr inbounds i8, ptr %0, i64 3584
  %3 = load ptr, ptr %2, align 8
  %.not.i.i = icmp eq ptr %3, null
  br i1 %.not.i.i, label %_ZN12_GLOBAL__N_115SimplifyFixtureD2Ev.exit, label %4

4:                                                ; preds = %1
  %5 = getelementptr inbounds i8, ptr %0, i64 3592
  %6 = load i8, ptr %5, align 8
  %7 = and i8 %6, 1
  store i8 %7, ptr %3, align 8
  br label %_ZN12_GLOBAL__N_115SimplifyFixtureD2Ev.exit

_ZN12_GLOBAL__N_115SimplifyFixtureD2Ev.exit:      ; preds = %1, %4
  %8 = getelementptr inbounds i8, ptr %0, i64 2512
  tail call void @_ZN4Luau5ScopeD2Ev(ptr noundef nonnull align 8 dereferenceable(848) %8) #20
  %9 = getelementptr inbounds i8, ptr %0, i64 2328
  tail call void @_ZN4Luau15ToStringOptionsD2Ev(ptr noundef nonnull align 8 dereferenceable(184) %9) #20
  %10 = getelementptr inbounds i8, ptr %0, i64 2232
  %11 = getelementptr inbounds i8, ptr %0, i64 2272
  tail call void @_ZN4Luau14TypedAllocatorINS_11TypePackVarEED2Ev(ptr noundef nonnull align 8 dereferenceable(40) %11) #20
  tail call void @_ZN4Luau14TypedAllocatorINS_4TypeEED2Ev(ptr noundef nonnull align 8 dereferenceable(40) %10) #20
  tail call void @_ZN4Luau7FixtureD2Ev(ptr noundef nonnull align 8 dereferenceable(2232) %0) #20
  ret void
}